target datalayout = "e-m:e-p270:32:32-p271:32:32-p272:64:64-i64:64-i128:128-f80:128-n8:16:32:64-S128"
target triple = "x86_64-pc-linux-gnu"

%class.TGenericCompiler = type { %class.TCompiler.base, %class.TInfoSink }
%class.TCompiler.base = type <{ %class.TShHandleBase, ptr, i32, i8 }>
%class.TShHandleBase = type { ptr, ptr }
%class.TInfoSink = type { %"class.glslang::TInfoSinkBase", %"class.glslang::TInfoSinkBase" }
%"class.glslang::TInfoSinkBase" = type { %"class.std::__cxx11::basic_string", i32, ptr }
%"class.std::__cxx11::basic_string" = type { %"struct.std::__cxx11::basic_string<char>::_Alloc_hider", i64, %union.anon }
%"struct.std::__cxx11::basic_string<char>::_Alloc_hider" = type { ptr }
%union.anon = type { i64, [8 x i8] }
%class.TCompiler = type <{ %class.TShHandleBase, ptr, i32, i8, [3 x i8] }>

; Function Attrs: mustprogress nounwind uwtable
define linkonce_odr void @_ZN7glslang13TInfoSinkBaseC2Ev(ptr noundef nonnull align 8 dereferenceable(48) %0) unnamed_addr #0 comdat align 2 {
  %2 = alloca ptr, align 8
  store ptr %0, ptr %2, align 8
  %3 = load ptr, ptr %2, align 8
  %4 = getelementptr inbounds %"class.glslang::TInfoSinkBase", ptr %3, i32 0, i32 0
  call void @_ZNSt7__cxx1112basic_stringIcSt11char_traitsIcESaIcEEC1Ev(ptr noundef nonnull align 8 dereferenceable(32) %4) #7
  %5 = getelementptr inbounds %"class.glslang::TInfoSinkBase", ptr %3, i32 0, i32 1
  store i32 4, ptr %5, align 8
  %6 = getelementptr inbounds %"class.glslang::TInfoSinkBase", ptr %3, i32 0, i32 2
  store ptr null, ptr %6, align 8
  ret void
}

; Function Attrs: mustprogress nounwind uwtable
define linkonce_odr void @_ZN13TShHandleBaseC2Ev(ptr noundef nonnull align 8 dereferenceable(16) %0) unnamed_addr #0 comdat align 2 {
  %2 = alloca ptr, align 8
  store ptr %0, ptr %2, align 8
  %3 = load ptr, ptr %2, align 8
  store ptr getelementptr inbounds inrange(-16, 48) ({ [8 x ptr] }, ptr @_ZTV13TShHandleBase, i32 0, i32 0, i32 2), ptr %3, align 8
  %4 = call noalias noundef nonnull ptr @_Znwm(i64 noundef 96) #6
  call void @_ZN7glslang14TPoolAllocatorC1Eii(ptr noundef nonnull align 8 dereferenceable(96) %4, i32 noundef 8192, i32 noundef 16)
  %5 = getelementptr inbounds %class.TShHandleBase, ptr %3, i32 0, i32 1
  store ptr %4, ptr %5, align 8
  ret void
}

; Function Attrs: mustprogress nounwind uwtable
define linkonce_odr void @_ZN9TInfoSinkC2Ev(ptr noundef nonnull align 8 dereferenceable(96) %0) unnamed_addr #0 comdat align 2 {
  %2 = alloca ptr, align 8
  store ptr %0, ptr %2, align 8
  %3 = load ptr, ptr %2, align 8
  %4 = getelementptr inbounds %class.TInfoSink, ptr %3, i32 0, i32 0
  call void @_ZN7glslang13TInfoSinkBaseC2Ev(ptr noundef nonnull align 8 dereferenceable(48) %4)
  %5 = getelementptr inbounds %class.TInfoSink, ptr %3, i32 0, i32 1
  call void @_ZN7glslang13TInfoSinkBaseC2Ev(ptr noundef nonnull align 8 dereferenceable(48) %5)
  ret void
}

; Function Attrs: mustprogress nounwind uwtable
define linkonce_odr void @_ZN9TCompilerC2E11EShLanguageR9TInfoSink(ptr noundef nonnull align 8 dereferenceable(29) %0, i32 noundef %1, ptr noundef nonnull align 8 dereferenceable(96) %2) unnamed_addr #0 comdat align 2 {
  %4 = alloca ptr, align 8
  %5 = alloca i32, align 4
  %6 = alloca ptr, align 8
  store ptr %0, ptr %4, align 8
  store i32 %1, ptr %5, align 4
  store ptr %2, ptr %6, align 8
  %7 = load ptr, ptr %4, align 8
  call void @_ZN13TShHandleBaseC2Ev(ptr noundef nonnull align 8 dereferenceable(16) %7)
  store ptr getelementptr inbounds inrange(-16, 72) ({ [11 x ptr] }, ptr @_ZTV9TCompiler, i32 0, i32 0, i32 2), ptr %7, align 8
  %8 = getelementptr inbounds %class.TCompiler, ptr %7, i32 0, i32 1
  %9 = load ptr, ptr %6, align 8
  store ptr %9, ptr %8, align 8
  %10 = getelementptr inbounds %class.TCompiler, ptr %7, i32 0, i32 2
  %11 = load i32, ptr %5, align 4
  store i32 %11, ptr %10, align 8
  %12 = getelementptr inbounds %class.TCompiler, ptr %7, i32 0, i32 3
  store i8 0, ptr %12, align 4
  ret void
}

; Function Attrs: mustprogress nounwind uwtable
define linkonce_odr void @_ZN16TGenericCompilerC2E11EShLanguage(ptr noundef nonnull align 8 dereferenceable(128) %0, i32 noundef %1) unnamed_addr #0 comdat align 2 {
  %3 = alloca ptr, align 8
  %4 = alloca i32, align 4
  store ptr %0, ptr %3, align 8
  store i32 %1, ptr %4, align 4
  %5 = load ptr, ptr %3, align 8
  store ptr getelementptr inbounds inrange(-16, 72) ({ [11 x ptr] }, ptr @_ZTV16TGenericCompiler, i32 0, i32 0, i32 2), ptr %5, align 8
  %6 = load i32, ptr %4, align 4
  %7 = getelementptr inbounds %class.TGenericCompiler, ptr %5, i32 0, i32 1
  call void @_ZN9TCompilerC2E11EShLanguageR9TInfoSink(ptr noundef nonnull align 8 dereferenceable(29) %5, i32 noundef %6, ptr noundef nonnull align 8 dereferenceable(96) %7)
  store ptr getelementptr inbounds inrange(-16, 72) ({ [11 x ptr] }, ptr @_ZTV16TGenericCompiler, i32 0, i32 0, i32 2), ptr %5, align 8
  %8 = getelementptr inbounds %class.TGenericCompiler, ptr %5, i32 0, i32 1
  call void @_ZN9TInfoSinkC2Ev(ptr noundef nonnull align 8 dereferenceable(96) %8)
  ret void
}

; Function Attrs: mustprogress nounwind uwtable
define noundef ptr @_Z17ConstructCompiler11EShLanguagei(i32 noundef %0, i32 noundef %1) #0 {
  %3 = alloca i32, align 4
  %4 = alloca i32, align 4
  store i32 %0, ptr %3, align 4
  store i32 %1, ptr %4, align 4
  %5 = call noalias noundef nonnull ptr @_Znwm(i64 noundef 128) #6
  %6 = load i32, ptr %3, align 4
  call void @_ZN16TGenericCompilerC2E11EShLanguage(ptr noundef nonnull align 8 dereferenceable(128) %5, i32 noundef %6)
  ret ptr %5
}